target datalayout = "e-m:e-p270:32:32-p271:32:32-p272:64:64-i64:64-i128:128-f80:128-n8:16:32:64-S128"
target triple = "x86_64-pc-linux-gnu"

@.str.1 = private unnamed_addr constant [9 x i8] c"aclchk.c\00", align 1
@.str.110 = private unnamed_addr constant [6 x i8] c"USAGE\00", align 1
@.str.154 = private unnamed_addr constant [7 x i8] c"INSERT\00", align 1
@.str.155 = private unnamed_addr constant [7 x i8] c"SELECT\00", align 1
@.str.156 = private unnamed_addr constant [7 x i8] c"UPDATE\00", align 1
@.str.157 = private unnamed_addr constant [7 x i8] c"DELETE\00", align 1
@.str.158 = private unnamed_addr constant [9 x i8] c"TRUNCATE\00", align 1
@.str.159 = private unnamed_addr constant [11 x i8] c"REFERENCES\00", align 1
@.str.160 = private unnamed_addr constant [8 x i8] c"TRIGGER\00", align 1
@.str.161 = private unnamed_addr constant [8 x i8] c"EXECUTE\00", align 1
@.str.162 = private unnamed_addr constant [7 x i8] c"CREATE\00", align 1
@.str.163 = private unnamed_addr constant [5 x i8] c"TEMP\00", align 1
@.str.164 = private unnamed_addr constant [8 x i8] c"CONNECT\00", align 1
@.str.165 = private unnamed_addr constant [4 x i8] c"SET\00", align 1
@.str.166 = private unnamed_addr constant [13 x i8] c"ALTER SYSTEM\00", align 1
@.str.167 = private unnamed_addr constant [9 x i8] c"MAINTAIN\00", align 1
@.str.168 = private unnamed_addr constant [27 x i8] c"unrecognized privilege: %d\00", align 1
@__func__.privilege_to_string = private unnamed_addr constant [20 x i8] c"privilege_to_string\00", align 1

; Function Attrs: nounwind uwtable
define internal ptr @privilege_to_string(i64 noundef %0) #0 {
  %2 = alloca ptr, align 8
  %3 = alloca i64, align 8
  store i64 %0, ptr %3, align 8
  %4 = load i64, ptr %3, align 8
  switch i64 %4, label %20 [
    i64 1, label %5
    i64 2, label %6
    i64 4, label %7
    i64 8, label %8
    i64 16, label %9
    i64 32, label %10
    i64 64, label %11
    i64 128, label %12
    i64 256, label %13
    i64 512, label %14
    i64 1024, label %15
    i64 2048, label %16
    i64 4096, label %17
    i64 8192, label %18
    i64 16384, label %19
  ]

5:                                                ; preds = %1
  store ptr @.str.154, ptr %2, align 8
  br label %33

6:                                                ; preds = %1
  store ptr @.str.155, ptr %2, align 8
  br label %33

7:                                                ; preds = %1
  store ptr @.str.156, ptr %2, align 8
  br label %33

8:                                                ; preds = %1
  store ptr @.str.157, ptr %2, align 8
  br label %33

9:                                                ; preds = %1
  store ptr @.str.158, ptr %2, align 8
  br label %33

10:                                               ; preds = %1
  store ptr @.str.159, ptr %2, align 8
  br label %33

11:                                               ; preds = %1
  store ptr @.str.160, ptr %2, align 8
  br label %33

12:                                               ; preds = %1
  store ptr @.str.161, ptr %2, align 8
  br label %33

13:                                               ; preds = %1
  store ptr @.str.110, ptr %2, align 8
  br label %33

14:                                               ; preds = %1
  store ptr @.str.162, ptr %2, align 8
  br label %33

15:                                               ; preds = %1
  store ptr @.str.163, ptr %2, align 8
  br label %33

16:                                               ; preds = %1
  store ptr @.str.164, ptr %2, align 8
  br label %33

17:                                               ; preds = %1
  store ptr @.str.165, ptr %2, align 8
  br label %33

18:                                               ; preds = %1
  store ptr @.str.166, ptr %2, align 8
  br label %33

19:                                               ; preds = %1
  store ptr @.str.167, ptr %2, align 8
  br label %33

20:                                               ; preds = %1
  br label %21

21:                                               ; preds = %20
  br i1 true, label %22, label %24

22:                                               ; preds = %21
  %23 = call zeroext i1 @errstart_cold(i32 noundef 21, ptr noundef null) #10
  br i1 %23, label %26, label %30

24:                                               ; preds = %21
  %25 = call zeroext i1 @errstart(i32 noundef 21, ptr noundef null)
  br i1 %25, label %26, label %30

26:                                               ; preds = %24, %22
  %27 = load i64, ptr %3, align 8
  %28 = trunc i64 %27 to i32
  %29 = call i32 (ptr, ...) @errmsg_internal(ptr noundef @.str.168, i32 noundef %28)
  call void @errfinish(ptr noundef @.str.1, i32 noundef 2610, ptr noundef @__func__.privilege_to_string)
  br label %30

30:                                               ; preds = %26, %24, %22
  unreachable

31:                                               ; No predecessors!
  br label %32

32:                                               ; preds = %31
  store ptr null, ptr %2, align 8
  br label %33

33:                                               ; preds = %32, %19, %18, %17, %16, %15, %14, %13, %12, %11, %10, %9, %8, %7, %6, %5
  %34 = load ptr, ptr %2, align 8
  ret ptr %34
}