; Function Attrs: nounwind uwtable
define internal fastcc noundef nonnull ptr @privilege_to_string(i64 noundef range(i64 1, 16385) %0) unnamed_addr #0 {
  switch i64 %0, label %16 [
    i64 1, label %20
    i64 2, label %2
    i64 4, label %3
    i64 8, label %4
    i64 16, label %5
    i64 32, label %6
    i64 64, label %7
    i64 128, label %8
    i64 256, label %9
    i64 512, label %10
    i64 1024, label %11
    i64 2048, label %12
    i64 4096, label %13
    i64 8192, label %14
    i64 16384, label %15
  ]

2:                                                ; preds = %1
  br label %20

3:                                                ; preds = %1
  br label %20

4:                                                ; preds = %1
  br label %20

5:                                                ; preds = %1
  br label %20

6:                                                ; preds = %1
  br label %20

7:                                                ; preds = %1
  br label %20

8:                                                ; preds = %1
  br label %20

9:                                                ; preds = %1
  br label %20

10:                                               ; preds = %1
  br label %20

11:                                               ; preds = %1
  br label %20

12:                                               ; preds = %1
  br label %20

13:                                               ; preds = %1
  br label %20

14:                                               ; preds = %1
  br label %20

15:                                               ; preds = %1
  br label %20

16:                                               ; preds = %1
  %17 = tail call zeroext i1 @errstart_cold(i32 noundef 21, ptr noundef null) #10
  tail call void @llvm.assume(i1 %17)
  %18 = trunc nuw nsw i64 %0 to i32
  %19 = tail call i32 (ptr, ...) @errmsg_internal(ptr noundef nonnull @.str.168, i32 noundef %18) #9
  tail call void @errfinish(ptr noundef nonnull @.str.1, i32 noundef 2610, ptr noundef nonnull @__func__.privilege_to_string) #9
  unreachable

20:                                               ; preds = %1, %15, %14, %13, %12, %11, %10, %9, %8, %7, %6, %5, %4, %3, %2
  %.0 = phi ptr [ @.str.167, %15 ], [ @.str.166, %14 ], [ @.str.165, %13 ], [ @.str.164, %12 ], [ @.str.163, %11 ], [ @.str.162, %10 ], [ @.str.110, %9 ], [ @.str.161, %8 ], [ @.str.160, %7 ], [ @.str.159, %6 ], [ @.str.158, %5 ], [ @.str.157, %4 ], [ @.str.156, %3 ], [ @.str.155, %2 ], [ @.str.154, %1 ]
  ret ptr %.0
}